---
triple:          'arm64-apple-darwin'
binary-path:     chess
relocations:
  - { offsetInCU: 0x2D97, offset: 0x2D97, size: 0x8, addend: 0x0, symName: __ZNSt3__124__put_character_sequenceB8ue170006IcNS_11char_traitsIcEEEERNS_13basic_ostreamIT_T0_EES7_PKS4_m, symObjAddr: 0x2D0, symBinAddr: 0x100001178, symSize: 0x1F4 }
  - { offsetInCU: 0x46E4, offset: 0x46E4, size: 0x8, addend: 0x0, symName: __ZNSt3__1lsB8ue170006INS_11char_traitsIcEEEERNS_13basic_ostreamIcT_EES6_PKc, symObjAddr: 0x204, symBinAddr: 0x1000010AC, symSize: 0x48 }
  - { offsetInCU: 0x472A, offset: 0x472A, size: 0x8, addend: 0x0, symName: __ZNSt3__14endlB8ue170006IcNS_11char_traitsIcEEEERNS_13basic_ostreamIT_T0_EES7_, symObjAddr: 0x278, symBinAddr: 0x100001120, symSize: 0x58 }
  - { offsetInCU: 0x476A, offset: 0x476A, size: 0x8, addend: 0x0, symName: __ZNSt3__116__pad_and_outputB8ue170006IcNS_11char_traitsIcEEEENS_19ostreambuf_iteratorIT_T0_EES6_PKS4_S8_S8_RNS_8ios_baseES4_, symObjAddr: 0x528, symBinAddr: 0x1000013D0, symSize: 0x248 }
  - { offsetInCU: 0x4839, offset: 0x4839, size: 0x8, addend: 0x0, symName: __ZNSt3__112__to_addressB8ue170006IKcEEPT_S3_, symObjAddr: 0xAA4, symBinAddr: 0x10000194C, symSize: 0x14 }
  - { offsetInCU: 0x486E, offset: 0x486E, size: 0x8, addend: 0x0, symName: __ZNSt3__130__libcpp_is_constant_evaluatedB8ue170006Ev, symObjAddr: 0xBD0, symBinAddr: 0x100001A78, symSize: 0xC }
  - { offsetInCU: 0x48BE, offset: 0x48BE, size: 0x8, addend: 0x0, symName: __ZNSt3__19use_facetB8ue170006INS_5ctypeIcEEEERKT_RKNS_6localeE, symObjAddr: 0xD88, symBinAddr: 0x100001C30, symSize: 0x2C }
  - { offsetInCU: 0x4D8B, offset: 0x4D8B, size: 0x8, addend: 0x0, symName: __ZNSt3__118__constexpr_strlenB8ue170006EPKc, symObjAddr: 0xE20, symBinAddr: 0x100001CC8, symSize: 0x24 }
  - { offsetInCU: 0x8080, offset: 0x8080, size: 0x8, addend: 0x0, symName: _main, symObjAddr: 0x0, symBinAddr: 0x100000EA8, symSize: 0x204 }
  - { offsetInCU: 0x80FC, offset: 0x80FC, size: 0x8, addend: 0x0, symName: __ZNSt3__113basic_ostreamIcNS_11char_traitsIcEEElsB8ue170006EPFRS3_S4_E, symObjAddr: 0x24C, symBinAddr: 0x1000010F4, symSize: 0x2C }
  - { offsetInCU: 0x812E, offset: 0x812E, size: 0x8, addend: 0x0, symName: __ZNSt3__111char_traitsIcE6lengthB8ue170006EPKc, symObjAddr: 0x4C4, symBinAddr: 0x10000136C, symSize: 0x48 }
  - { offsetInCU: 0x816E, offset: 0x816E, size: 0x8, addend: 0x0, symName: __ZNKSt3__113basic_ostreamIcNS_11char_traitsIcEEE6sentrycvbB8ue170006Ev, symObjAddr: 0x50C, symBinAddr: 0x1000013B4, symSize: 0x1C }
  - { offsetInCU: 0x8192, offset: 0x8192, size: 0x8, addend: 0x0, symName: __ZNSt3__119ostreambuf_iteratorIcNS_11char_traitsIcEEEC1B8ue170006ERNS_13basic_ostreamIcS2_EE, symObjAddr: 0x770, symBinAddr: 0x100001618, symSize: 0x34 }
  - { offsetInCU: 0x81C8, offset: 0x81C8, size: 0x8, addend: 0x0, symName: __ZNKSt3__18ios_base5flagsB8ue170006Ev, symObjAddr: 0x7A4, symBinAddr: 0x10000164C, symSize: 0x18 }
  - { offsetInCU: 0x81EE, offset: 0x81EE, size: 0x8, addend: 0x0, symName: __ZNKSt3__19basic_iosIcNS_11char_traitsIcEEE4fillB8ue170006Ev, symObjAddr: 0x7BC, symBinAddr: 0x100001664, symSize: 0x64 }
  - { offsetInCU: 0x8214, offset: 0x8214, size: 0x8, addend: 0x0, symName: __ZNKSt3__119ostreambuf_iteratorIcNS_11char_traitsIcEEE6failedB8ue170006Ev, symObjAddr: 0x820, symBinAddr: 0x1000016C8, symSize: 0x24 }
  - { offsetInCU: 0x8238, offset: 0x8238, size: 0x8, addend: 0x0, symName: __ZNSt3__19basic_iosIcNS_11char_traitsIcEEE8setstateB8ue170006Ej, symObjAddr: 0x844, symBinAddr: 0x1000016EC, symSize: 0x2C }
  - { offsetInCU: 0x826B, offset: 0x826B, size: 0x8, addend: 0x0, symName: __ZNKSt3__18ios_base5widthB8ue170006Ev, symObjAddr: 0x87C, symBinAddr: 0x100001724, symSize: 0x18 }
  - { offsetInCU: 0x8291, offset: 0x8291, size: 0x8, addend: 0x0, symName: __ZNSt3__115basic_streambufIcNS_11char_traitsIcEEE5sputnB8ue170006EPKcl, symObjAddr: 0x894, symBinAddr: 0x10000173C, symSize: 0x3C }
  - { offsetInCU: 0x82D1, offset: 0x82D1, size: 0x8, addend: 0x0, symName: __ZNSt3__112basic_stringIcNS_11char_traitsIcEENS_9allocatorIcEEEC1B8ue170006Emc, symObjAddr: 0x8D0, symBinAddr: 0x100001778, symSize: 0x3C }
  - { offsetInCU: 0x8317, offset: 0x8317, size: 0x8, addend: 0x0, symName: __ZNKSt3__112basic_stringIcNS_11char_traitsIcEENS_9allocatorIcEEE4dataB8ue170006Ev, symObjAddr: 0x90C, symBinAddr: 0x1000017B4, symSize: 0x28 }
  - { offsetInCU: 0x833B, offset: 0x833B, size: 0x8, addend: 0x0, symName: __ZNSt3__18ios_base5widthB8ue170006El, symObjAddr: 0x934, symBinAddr: 0x1000017DC, symSize: 0x2C }
  - { offsetInCU: 0x837F, offset: 0x837F, size: 0x8, addend: 0x0, symName: __ZNSt3__112basic_stringIcNS_11char_traitsIcEENS_9allocatorIcEEEC2B8ue170006Emc, symObjAddr: 0x960, symBinAddr: 0x100001808, symSize: 0x4C }
  - { offsetInCU: 0x83CA, offset: 0x83CA, size: 0x8, addend: 0x0, symName: __ZNSt3__117__compressed_pairINS_12basic_stringIcNS_11char_traitsIcEENS_9allocatorIcEEE5__repES5_EC1B8ue170006INS_18__default_init_tagESA_EEOT_OT0_, symObjAddr: 0x9AC, symBinAddr: 0x100001854, symSize: 0x3C }
  - { offsetInCU: 0x8420, offset: 0x8420, size: 0x8, addend: 0x0, symName: __ZNSt3__117__compressed_pairINS_12basic_stringIcNS_11char_traitsIcEENS_9allocatorIcEEE5__repES5_EC2B8ue170006INS_18__default_init_tagESA_EEOT_OT0_, symObjAddr: 0x9E8, symBinAddr: 0x100001890, symSize: 0x3C }
  - { offsetInCU: 0x8476, offset: 0x8476, size: 0x8, addend: 0x0, symName: __ZNSt3__122__compressed_pair_elemINS_12basic_stringIcNS_11char_traitsIcEENS_9allocatorIcEEE5__repELi0ELb0EEC2B8ue170006ENS_18__default_init_tagE, symObjAddr: 0xA24, symBinAddr: 0x1000018CC, symSize: 0x14 }
  - { offsetInCU: 0x84A8, offset: 0x84A8, size: 0x8, addend: 0x0, symName: __ZNSt3__122__compressed_pair_elemINS_9allocatorIcEELi1ELb1EEC2B8ue170006ENS_18__default_init_tagE, symObjAddr: 0xA38, symBinAddr: 0x1000018E0, symSize: 0x2C }
  - { offsetInCU: 0x84DA, offset: 0x84DA, size: 0x8, addend: 0x0, symName: __ZNSt3__19allocatorIcEC2B8ue170006Ev, symObjAddr: 0xA64, symBinAddr: 0x10000190C, symSize: 0x2C }
  - { offsetInCU: 0x8502, offset: 0x8502, size: 0x8, addend: 0x0, symName: __ZNSt3__116__non_trivial_ifILb1ENS_9allocatorIcEEEC2B8ue170006Ev, symObjAddr: 0xA90, symBinAddr: 0x100001938, symSize: 0x14 }
  - { offsetInCU: 0x852A, offset: 0x852A, size: 0x8, addend: 0x0, symName: __ZNKSt3__112basic_stringIcNS_11char_traitsIcEENS_9allocatorIcEEE13__get_pointerB8ue170006Ev, symObjAddr: 0xAB8, symBinAddr: 0x100001960, symSize: 0x54 }
  - { offsetInCU: 0x854E, offset: 0x854E, size: 0x8, addend: 0x0, symName: __ZNKSt3__112basic_stringIcNS_11char_traitsIcEENS_9allocatorIcEEE9__is_longB8ue170006Ev, symObjAddr: 0xB0C, symBinAddr: 0x1000019B4, symSize: 0x74 }
  - { offsetInCU: 0x8572, offset: 0x8572, size: 0x8, addend: 0x0, symName: __ZNKSt3__112basic_stringIcNS_11char_traitsIcEENS_9allocatorIcEEE18__get_long_pointerB8ue170006Ev, symObjAddr: 0xB80, symBinAddr: 0x100001A28, symSize: 0x28 }
  - { offsetInCU: 0x8596, offset: 0x8596, size: 0x8, addend: 0x0, symName: __ZNKSt3__112basic_stringIcNS_11char_traitsIcEENS_9allocatorIcEEE19__get_short_pointerB8ue170006Ev, symObjAddr: 0xBA8, symBinAddr: 0x100001A50, symSize: 0x28 }
  - { offsetInCU: 0x85BA, offset: 0x85BA, size: 0x8, addend: 0x0, symName: __ZNKSt3__117__compressed_pairINS_12basic_stringIcNS_11char_traitsIcEENS_9allocatorIcEEE5__repES5_E5firstB8ue170006Ev, symObjAddr: 0xBDC, symBinAddr: 0x100001A84, symSize: 0x24 }
  - { offsetInCU: 0x85DE, offset: 0x85DE, size: 0x8, addend: 0x0, symName: __ZNKSt3__122__compressed_pair_elemINS_12basic_stringIcNS_11char_traitsIcEENS_9allocatorIcEEE5__repELi0ELb0EE5__getB8ue170006Ev, symObjAddr: 0xC00, symBinAddr: 0x100001AA8, symSize: 0x14 }
  - { offsetInCU: 0x8602, offset: 0x8602, size: 0x8, addend: 0x0, symName: __ZNSt3__114pointer_traitsIPKcE10pointer_toB8ue170006ERS1_, symObjAddr: 0xC14, symBinAddr: 0x100001ABC, symSize: 0x14 }
  - { offsetInCU: 0x8624, offset: 0x8624, size: 0x8, addend: 0x0, symName: __ZNSt3__119ostreambuf_iteratorIcNS_11char_traitsIcEEEC2B8ue170006ERNS_13basic_ostreamIcS2_EE, symObjAddr: 0xC28, symBinAddr: 0x100001AD0, symSize: 0x68 }
  - { offsetInCU: 0x865A, offset: 0x865A, size: 0x8, addend: 0x0, symName: __ZNKSt3__19basic_iosIcNS_11char_traitsIcEEE5rdbufB8ue170006Ev, symObjAddr: 0xC90, symBinAddr: 0x100001B38, symSize: 0x24 }
  - { offsetInCU: 0x8680, offset: 0x8680, size: 0x8, addend: 0x0, symName: __ZNKSt3__18ios_base5rdbufB8ue170006Ev, symObjAddr: 0xCB4, symBinAddr: 0x100001B5C, symSize: 0x18 }
  - { offsetInCU: 0x86A4, offset: 0x86A4, size: 0x8, addend: 0x0, symName: __ZNSt3__111char_traitsIcE11eq_int_typeB8ue170006Eii, symObjAddr: 0xCCC, symBinAddr: 0x100001B74, symSize: 0x28 }
  - { offsetInCU: 0x86D6, offset: 0x86D6, size: 0x8, addend: 0x0, symName: __ZNSt3__111char_traitsIcE3eofB8ue170006Ev, symObjAddr: 0xCF4, symBinAddr: 0x100001B9C, symSize: 0x8 }
  - { offsetInCU: 0x86E9, offset: 0x86E9, size: 0x8, addend: 0x0, symName: __ZNKSt3__19basic_iosIcNS_11char_traitsIcEEE5widenB8ue170006Ec, symObjAddr: 0xCFC, symBinAddr: 0x100001BA4, symSize: 0x8C }
  - { offsetInCU: 0x8755, offset: 0x8755, size: 0x8, addend: 0x0, symName: __ZNKSt3__15ctypeIcE5widenB8ue170006Ec, symObjAddr: 0xDB4, symBinAddr: 0x100001C5C, symSize: 0x38 }
  - { offsetInCU: 0x8788, offset: 0x8788, size: 0x8, addend: 0x0, symName: __ZNSt3__18ios_base8setstateB8ue170006Ej, symObjAddr: 0xDEC, symBinAddr: 0x100001C94, symSize: 0x34 }
  - { offsetInCU: 0x33F4, offset: 0xBF7F, size: 0x8, addend: 0x0, symName: __ZNSt3__1neB8ue170006IcNS_11char_traitsIcEENS_9allocatorIcEEEEbRKNS_12basic_stringIT_T0_T1_EEPKS6_, symObjAddr: 0x714, symBinAddr: 0x1000023F4, symSize: 0x34 }
  - { offsetInCU: 0x344C, offset: 0xBFD7, size: 0x8, addend: 0x0, symName: __ZNSt3__117__libcpp_allocateB8ue170006Emm, symObjAddr: 0x2A0C, symBinAddr: 0x1000045E8, symSize: 0x28 }
  - { offsetInCU: 0x3489, offset: 0xC014, size: 0x8, addend: 0x0, symName: __ZNSt3__121__libcpp_operator_newB8ue170006IJmEEEPvDpT_, symObjAddr: 0x2A48, symBinAddr: 0x100004624, symSize: 0x24 }
  - { offsetInCU: 0x34C4, offset: 0xC04F, size: 0x8, addend: 0x0, symName: __ZNSt3__1eqB8ue170006IcNS_11char_traitsIcEENS_9allocatorIcEEEEbRKNS_12basic_stringIT_T0_T1_EEPKS6_, symObjAddr: 0x2AA4, symBinAddr: 0x100004680, symSize: 0xC0 }
  - { offsetInCU: 0x352C, offset: 0xC0B7, size: 0x8, addend: 0x0, symName: __ZSt28__throw_bad_array_new_lengthB8ue170006v, symObjAddr: 0x29D8, symBinAddr: 0x1000045B4, symSize: 0x34 }
  - { offsetInCU: 0x55A8, offset: 0xE133, size: 0x8, addend: 0x0, symName: __ZN5pieceC2Ev, symObjAddr: 0x0, symBinAddr: 0x100001CEC, symSize: 0x40 }
  - { offsetInCU: 0x55D3, offset: 0xE15E, size: 0x8, addend: 0x0, symName: __ZNSt3__112basic_stringIcNS_11char_traitsIcEENS_9allocatorIcEEEC1B8ue170006Ev, symObjAddr: 0x40, symBinAddr: 0x100001D2C, symSize: 0x2C }
  - { offsetInCU: 0x55FB, offset: 0xE186, size: 0x8, addend: 0x0, symName: __ZN5pieceD2Ev, symObjAddr: 0x6C, symBinAddr: 0x100001D58, symSize: 0x40 }
  - { offsetInCU: 0x5626, offset: 0xE1B1, size: 0x8, addend: 0x0, symName: __ZN5pieceD1Ev, symObjAddr: 0xAC, symBinAddr: 0x100001D98, symSize: 0x14 }
  - { offsetInCU: 0x5651, offset: 0xE1DC, size: 0x8, addend: 0x0, symName: __ZN5pieceD0Ev, symObjAddr: 0xC0, symBinAddr: 0x100001DAC, symSize: 0xC }
  - { offsetInCU: 0x56F6, offset: 0xE281, size: 0x8, addend: 0x0, symName: __ZN10blankpieceC2Ev, symObjAddr: 0xCC, symBinAddr: 0x100001DB8, symSize: 0x8C }
  - { offsetInCU: 0x5721, offset: 0xE2AC, size: 0x8, addend: 0x0, symName: __ZNSt3__112basic_stringIcNS_11char_traitsIcEENS_9allocatorIcEEEaSB8ue170006EPKc, symObjAddr: 0x158, symBinAddr: 0x100001E44, symSize: 0x2C }
  - { offsetInCU: 0x5754, offset: 0xE2DF, size: 0x8, addend: 0x0, symName: __ZN10blankpieceC1Ev, symObjAddr: 0x190, symBinAddr: 0x100001E70, symSize: 0x2C }
  - { offsetInCU: 0x577F, offset: 0xE30A, size: 0x8, addend: 0x0, symName: __ZN10blankpieceD2Ev, symObjAddr: 0x1BC, symBinAddr: 0x100001E9C, symSize: 0x44 }
  - { offsetInCU: 0x57AA, offset: 0xE335, size: 0x8, addend: 0x0, symName: __ZN10blankpieceD1Ev, symObjAddr: 0x200, symBinAddr: 0x100001EE0, symSize: 0x2C }
  - { offsetInCU: 0x57D5, offset: 0xE360, size: 0x8, addend: 0x0, symName: __ZN10blankpieceD0Ev, symObjAddr: 0x22C, symBinAddr: 0x100001F0C, symSize: 0x58 }
  - { offsetInCU: 0x5800, offset: 0xE38B, size: 0x8, addend: 0x0, symName: __ZN10blankpiece9checkmoveEiiiiR5boardR6player, symObjAddr: 0x284, symBinAddr: 0x100001F64, symSize: 0x30 }
  - { offsetInCU: 0x5906, offset: 0xE491, size: 0x8, addend: 0x0, symName: __ZN4pawnC2EP6player, symObjAddr: 0x2B4, symBinAddr: 0x100001F94, symSize: 0xE8 }
  - { offsetInCU: 0x593F, offset: 0xE4CA, size: 0x8, addend: 0x0, symName: __ZN4pawnC1EP6player, symObjAddr: 0x39C, symBinAddr: 0x10000207C, symSize: 0x34 }
  - { offsetInCU: 0x5978, offset: 0xE503, size: 0x8, addend: 0x0, symName: __ZN4pawnD2Ev, symObjAddr: 0x3D0, symBinAddr: 0x1000020B0, symSize: 0x2C }
  - { offsetInCU: 0x59A2, offset: 0xE52D, size: 0x8, addend: 0x0, symName: __ZN4pawnD1Ev, symObjAddr: 0x3FC, symBinAddr: 0x1000020DC, symSize: 0x2C }
  - { offsetInCU: 0x59CC, offset: 0xE557, size: 0x8, addend: 0x0, symName: __ZN4pawnD0Ev, symObjAddr: 0x428, symBinAddr: 0x100002108, symSize: 0x58 }
  - { offsetInCU: 0x59F6, offset: 0xE581, size: 0x8, addend: 0x0, symName: __ZN4pawn9checkmoveEiiiiR5boardR6player, symObjAddr: 0x480, symBinAddr: 0x100002160, symSize: 0x294 }
  - { offsetInCU: 0x5B36, offset: 0xE6C1, size: 0x8, addend: 0x0, symName: __ZN6bishopC2EP6player, symObjAddr: 0x748, symBinAddr: 0x100002428, symSize: 0xE4 }
  - { offsetInCU: 0x5B6F, offset: 0xE6FA, size: 0x8, addend: 0x0, symName: __ZN6bishopC1EP6player, symObjAddr: 0x82C, symBinAddr: 0x10000250C, symSize: 0x34 }
  - { offsetInCU: 0x5BA8, offset: 0xE733, size: 0x8, addend: 0x0, symName: __ZN6bishopD2Ev, symObjAddr: 0x860, symBinAddr: 0x100002540, symSize: 0x2C }
  - { offsetInCU: 0x5BD3, offset: 0xE75E, size: 0x8, addend: 0x0, symName: __ZN6bishopD1Ev, symObjAddr: 0x88C, symBinAddr: 0x10000256C, symSize: 0x2C }
  - { offsetInCU: 0x5BFE, offset: 0xE789, size: 0x8, addend: 0x0, symName: __ZN6bishopD0Ev, symObjAddr: 0x8B8, symBinAddr: 0x100002598, symSize: 0x58 }
  - { offsetInCU: 0x5C29, offset: 0xE7B4, size: 0x8, addend: 0x0, symName: __ZN6bishop9checkmoveEiiiiR5boardR6player, symObjAddr: 0x910, symBinAddr: 0x1000025F0, symSize: 0x538 }
  - { offsetInCU: 0x5DBD, offset: 0xE948, size: 0x8, addend: 0x0, symName: __ZN6knightC2EP6player, symObjAddr: 0xE48, symBinAddr: 0x100002B28, symSize: 0xE4 }
  - { offsetInCU: 0x5DF6, offset: 0xE981, size: 0x8, addend: 0x0, symName: __ZN6knightC1EP6player, symObjAddr: 0xF2C, symBinAddr: 0x100002C0C, symSize: 0x34 }
  - { offsetInCU: 0x5E2F, offset: 0xE9BA, size: 0x8, addend: 0x0, symName: __ZN6knightD2Ev, symObjAddr: 0xF60, symBinAddr: 0x100002C40, symSize: 0x2C }
  - { offsetInCU: 0x5E5A, offset: 0xE9E5, size: 0x8, addend: 0x0, symName: __ZN6knightD1Ev, symObjAddr: 0xF8C, symBinAddr: 0x100002C6C, symSize: 0x2C }
  - { offsetInCU: 0x5E85, offset: 0xEA10, size: 0x8, addend: 0x0, symName: __ZN6knightD0Ev, symObjAddr: 0xFB8, symBinAddr: 0x100002C98, symSize: 0x58 }
  - { offsetInCU: 0x5EB0, offset: 0xEA3B, size: 0x8, addend: 0x0, symName: __ZN6knight9checkmoveEiiiiR5boardR6player, symObjAddr: 0x1010, symBinAddr: 0x100002CF0, symSize: 0x15C }
  - { offsetInCU: 0x5FD4, offset: 0xEB5F, size: 0x8, addend: 0x0, symName: __ZN4rookC2EP6player, symObjAddr: 0x116C, symBinAddr: 0x100002E4C, symSize: 0xE4 }
  - { offsetInCU: 0x600D, offset: 0xEB98, size: 0x8, addend: 0x0, symName: __ZN4rookC1EP6player, symObjAddr: 0x1250, symBinAddr: 0x100002F30, symSize: 0x34 }
  - { offsetInCU: 0x6046, offset: 0xEBD1, size: 0x8, addend: 0x0, symName: __ZN4rookD2Ev, symObjAddr: 0x1284, symBinAddr: 0x100002F64, symSize: 0x2C }
  - { offsetInCU: 0x6071, offset: 0xEBFC, size: 0x8, addend: 0x0, symName: __ZN4rookD1Ev, symObjAddr: 0x12B0, symBinAddr: 0x100002F90, symSize: 0x2C }
  - { offsetInCU: 0x609C, offset: 0xEC27, size: 0x8, addend: 0x0, symName: __ZN4rookD0Ev, symObjAddr: 0x12DC, symBinAddr: 0x100002FBC, symSize: 0x58 }
  - { offsetInCU: 0x60C7, offset: 0xEC52, size: 0x8, addend: 0x0, symName: __ZN4rook9checkmoveEiiiiR5boardR6player, symObjAddr: 0x1334, symBinAddr: 0x100003014, symSize: 0x3F0 }
  - { offsetInCU: 0x625E, offset: 0xEDE9, size: 0x8, addend: 0x0, symName: __ZN5queenC2EP6player, symObjAddr: 0x1724, symBinAddr: 0x100003404, symSize: 0xE4 }
  - { offsetInCU: 0x6299, offset: 0xEE24, size: 0x8, addend: 0x0, symName: __ZN5queenC1EP6player, symObjAddr: 0x1808, symBinAddr: 0x1000034E8, symSize: 0x34 }
  - { offsetInCU: 0x62D4, offset: 0xEE5F, size: 0x8, addend: 0x0, symName: __ZN5queenD2Ev, symObjAddr: 0x183C, symBinAddr: 0x10000351C, symSize: 0x2C }
  - { offsetInCU: 0x6300, offset: 0xEE8B, size: 0x8, addend: 0x0, symName: __ZN5queenD1Ev, symObjAddr: 0x1868, symBinAddr: 0x100003548, symSize: 0x2C }
  - { offsetInCU: 0x632C, offset: 0xEEB7, size: 0x8, addend: 0x0, symName: __ZN5queenD0Ev, symObjAddr: 0x1894, symBinAddr: 0x100003574, symSize: 0x58 }
  - { offsetInCU: 0x6358, offset: 0xEEE3, size: 0x8, addend: 0x0, symName: __ZN5queen9checkmoveEiiiiR5boardR6player, symObjAddr: 0x18EC, symBinAddr: 0x1000035CC, symSize: 0x84C }
  - { offsetInCU: 0x656E, offset: 0xF0F9, size: 0x8, addend: 0x0, symName: __ZN4kingC2EP6player, symObjAddr: 0x2138, symBinAddr: 0x100003E18, symSize: 0xE4 }
  - { offsetInCU: 0x65A9, offset: 0xF134, size: 0x8, addend: 0x0, symName: __ZN4kingC1EP6player, symObjAddr: 0x221C, symBinAddr: 0x100003EFC, symSize: 0x34 }
  - { offsetInCU: 0x65E4, offset: 0xF16F, size: 0x8, addend: 0x0, symName: __ZN4kingD2Ev, symObjAddr: 0x2250, symBinAddr: 0x100003F30, symSize: 0x2C }
  - { offsetInCU: 0x6610, offset: 0xF19B, size: 0x8, addend: 0x0, symName: __ZN4kingD1Ev, symObjAddr: 0x227C, symBinAddr: 0x100003F5C, symSize: 0x2C }
  - { offsetInCU: 0x663C, offset: 0xF1C7, size: 0x8, addend: 0x0, symName: __ZN4kingD0Ev, symObjAddr: 0x22A8, symBinAddr: 0x100003F88, symSize: 0x58 }
  - { offsetInCU: 0x6668, offset: 0xF1F3, size: 0x8, addend: 0x0, symName: __ZN4king9checkmoveEiiiiR5boardR6player, symObjAddr: 0x2300, symBinAddr: 0x100003FE0, symSize: 0x20C }
  - { offsetInCU: 0x6717, offset: 0xF2A2, size: 0x8, addend: 0x0, symName: __ZNSt3__112basic_stringIcNS_11char_traitsIcEENS_9allocatorIcEEEC2B8ue170006Ev, symObjAddr: 0x250C, symBinAddr: 0x1000041EC, symSize: 0x3C }
  - { offsetInCU: 0x673F, offset: 0xF2CA, size: 0x8, addend: 0x0, symName: __ZNSt3__112basic_stringIcNS_11char_traitsIcEENS_9allocatorIcEEE14__default_initB8ue170006Ev, symObjAddr: 0x2584, symBinAddr: 0x100004228, symSize: 0xB0 }
  - { offsetInCU: 0x678F, offset: 0xF31A, size: 0x8, addend: 0x0, symName: __ZNSt3__117__compressed_pairINS_12basic_stringIcNS_11char_traitsIcEENS_9allocatorIcEEE5__repES5_E5firstB8ue170006Ev, symObjAddr: 0x26F0, symBinAddr: 0x1000042D8, symSize: 0x24 }
  - { offsetInCU: 0x67B3, offset: 0xF33E, size: 0x8, addend: 0x0, symName: __ZNSt3__112basic_stringIcNS_11char_traitsIcEENS_9allocatorIcEEE11__recommendB8ue170006Em, symObjAddr: 0x2720, symBinAddr: 0x1000042FC, symSize: 0x9C }
  - { offsetInCU: 0x67E5, offset: 0xF370, size: 0x8, addend: 0x0, symName: __ZNSt3__116allocator_traitsINS_9allocatorIcEEE8allocateB8ue170006ERS2_m, symObjAddr: 0x27BC, symBinAddr: 0x100004398, symSize: 0x2C }
  - { offsetInCU: 0x6817, offset: 0xF3A2, size: 0x8, addend: 0x0, symName: __ZNSt3__112basic_stringIcNS_11char_traitsIcEENS_9allocatorIcEEE7__allocB8ue170006Ev, symObjAddr: 0x27E8, symBinAddr: 0x1000043C4, symSize: 0x24 }
  - { offsetInCU: 0x683B, offset: 0xF3C6, size: 0x8, addend: 0x0, symName: __ZNSt3__112basic_stringIcNS_11char_traitsIcEENS_9allocatorIcEEE16__begin_lifetimeB8ue170006EPcm, symObjAddr: 0x280C, symBinAddr: 0x1000043E8, symSize: 0x14 }
  - { offsetInCU: 0x686D, offset: 0xF3F8, size: 0x8, addend: 0x0, symName: __ZNSt3__112basic_stringIcNS_11char_traitsIcEENS_9allocatorIcEEE18__set_long_pointerB8ue170006EPc, symObjAddr: 0x2820, symBinAddr: 0x1000043FC, symSize: 0x38 }
  - { offsetInCU: 0x68A0, offset: 0xF42B, size: 0x8, addend: 0x0, symName: __ZNSt3__112basic_stringIcNS_11char_traitsIcEENS_9allocatorIcEEE14__set_long_capB8ue170006Em, symObjAddr: 0x2858, symBinAddr: 0x100004434, symSize: 0x70 }
  - { offsetInCU: 0x68D3, offset: 0xF45E, size: 0x8, addend: 0x0, symName: __ZNSt3__112basic_stringIcNS_11char_traitsIcEENS_9allocatorIcEEE15__set_long_sizeB8ue170006Em, symObjAddr: 0x28C8, symBinAddr: 0x1000044A4, symSize: 0x38 }
  - { offsetInCU: 0x6906, offset: 0xF491, size: 0x8, addend: 0x0, symName: __ZNSt3__122__compressed_pair_elemINS_12basic_stringIcNS_11char_traitsIcEENS_9allocatorIcEEE5__repELi0ELb0EE5__getB8ue170006Ev, symObjAddr: 0x2900, symBinAddr: 0x1000044DC, symSize: 0x14 }
  - { offsetInCU: 0x692A, offset: 0xF4B5, size: 0x8, addend: 0x0, symName: __ZNSt3__112basic_stringIcNS_11char_traitsIcEENS_9allocatorIcEEE10__align_itB8ue170006ILm16EEEmm, symObjAddr: 0x2914, symBinAddr: 0x1000044F0, symSize: 0x1C }
  - { offsetInCU: 0x6957, offset: 0xF4E2, size: 0x8, addend: 0x0, symName: __ZNSt3__19allocatorIcE8allocateB8ue170006Em, symObjAddr: 0x2930, symBinAddr: 0x10000450C, symSize: 0x84 }
  - { offsetInCU: 0x6993, offset: 0xF51E, size: 0x8, addend: 0x0, symName: __ZNSt3__116allocator_traitsINS_9allocatorIcEEE8max_sizeB8ue170006IS2_vEEmRKS2_, symObjAddr: 0x29B4, symBinAddr: 0x100004590, symSize: 0x24 }
  - { offsetInCU: 0x69C1, offset: 0xF54C, size: 0x8, addend: 0x0, symName: __ZNKSt3__19allocatorIcE8max_sizeB8ue170006Ev, symObjAddr: 0x2A34, symBinAddr: 0x100004610, symSize: 0x14 }
  - { offsetInCU: 0x69E5, offset: 0xF570, size: 0x8, addend: 0x0, symName: __ZNSt3__117__compressed_pairINS_12basic_stringIcNS_11char_traitsIcEENS_9allocatorIcEEE5__repES5_E6secondB8ue170006Ev, symObjAddr: 0x2A6C, symBinAddr: 0x100004648, symSize: 0x24 }
  - { offsetInCU: 0x6A09, offset: 0xF594, size: 0x8, addend: 0x0, symName: __ZNSt3__122__compressed_pair_elemINS_9allocatorIcEELi1ELb1EE5__getB8ue170006Ev, symObjAddr: 0x2A90, symBinAddr: 0x10000466C, symSize: 0x14 }
  - { offsetInCU: 0x6A2D, offset: 0xF5B8, size: 0x8, addend: 0x0, symName: __ZNKSt3__112basic_stringIcNS_11char_traitsIcEENS_9allocatorIcEEE4sizeB8ue170006Ev, symObjAddr: 0x2BAC, symBinAddr: 0x100004740, symSize: 0x54 }
  - { offsetInCU: 0x6A51, offset: 0xF5DC, size: 0x8, addend: 0x0, symName: __ZNKSt3__112basic_stringIcNS_11char_traitsIcEENS_9allocatorIcEEE15__get_long_sizeB8ue170006Ev, symObjAddr: 0x2C98, symBinAddr: 0x100004794, symSize: 0x28 }
  - { offsetInCU: 0x6A75, offset: 0xF600, size: 0x8, addend: 0x0, symName: __ZNKSt3__112basic_stringIcNS_11char_traitsIcEENS_9allocatorIcEEE16__get_short_sizeB8ue170006Ev, symObjAddr: 0x2CC0, symBinAddr: 0x1000047BC, symSize: 0x34 }
  - { offsetInCU: 0x405F, offset: 0x136BA, size: 0x8, addend: 0x0, symName: __ZNSt3__112__to_addressB8ue170006IP5pieceEEPT_S4_, symObjAddr: 0x9B0, symBinAddr: 0x1000050AC, symSize: 0x14 }
  - { offsetInCU: 0x4094, offset: 0x136EF, size: 0x8, addend: 0x0, symName: __ZNSt3__13maxB8ue170006ImEERKT_S3_S3_, symObjAddr: 0xDC4, symBinAddr: 0x1000054B4, symSize: 0x2C }
  - { offsetInCU: 0x40D7, offset: 0x13732, size: 0x8, addend: 0x0, symName: __ZNSt3__13minB8ue170006ImEERKT_S3_S3_, symObjAddr: 0xDF0, symBinAddr: 0x1000054E0, symSize: 0x2C }
  - { offsetInCU: 0x4325, offset: 0x13980, size: 0x8, addend: 0x0, symName: __ZNSt3__13minB8ue170006ImNS_6__lessIvvEEEERKT_S5_S5_T0_, symObjAddr: 0xE7C, symBinAddr: 0x10000556C, symSize: 0x54 }
  - { offsetInCU: 0x43C6, offset: 0x13A21, size: 0x8, addend: 0x0, symName: __ZNSt3__120__throw_length_errorB8ue170006EPKc, symObjAddr: 0xF58, symBinAddr: 0x100005648, symSize: 0x64 }
  - { offsetInCU: 0x43F1, offset: 0x13A4C, size: 0x8, addend: 0x0, symName: __ZNSt3__13maxB8ue170006ImNS_6__lessIvvEEEERKT_S5_S5_T0_, symObjAddr: 0x109C, symBinAddr: 0x10000578C, symSize: 0x54 }
  - { offsetInCU: 0x444B, offset: 0x13AA6, size: 0x8, addend: 0x0, symName: __ZNSt3__119__allocate_at_leastB8ue170006INS_9allocatorIP5pieceEEEENS_19__allocation_resultINS_16allocator_traitsIT_E7pointerEEERS7_m, symObjAddr: 0x1200, symBinAddr: 0x1000058F0, symSize: 0x40 }
  - { offsetInCU: 0x448E, offset: 0x13AE9, size: 0x8, addend: 0x0, symName: __ZNSt3__142__uninitialized_allocator_move_if_noexceptB8ue170006INS_9allocatorIP5pieceEENS_16reverse_iteratorIPS3_EES7_S3_vEET1_RT_T0_SB_S8_, symObjAddr: 0x1540, symBinAddr: 0x100005BA4, symSize: 0xE8 }
  - { offsetInCU: 0x450D, offset: 0x13B68, size: 0x8, addend: 0x0, symName: __ZNSt3__14swapB8ue170006IPP5pieceEEvRT_S5_, symObjAddr: 0x1674, symBinAddr: 0x100005CD8, symSize: 0x3C }
  - { offsetInCU: 0x455E, offset: 0x13BB9, size: 0x8, addend: 0x0, symName: __ZNSt3__1neB8ue170006IPP5pieceS3_EEbRKNS_16reverse_iteratorIT_EERKNS4_IT0_EE, symObjAddr: 0x17A4, symBinAddr: 0x100005E08, symSize: 0x48 }
  - { offsetInCU: 0x45D1, offset: 0x13C2C, size: 0x8, addend: 0x0, symName: __ZNSt3__114__construct_atB8ue170006IP5pieceJS2_EPS2_EEPT_S5_DpOT0_, symObjAddr: 0x17EC, symBinAddr: 0x100005E50, symSize: 0x2C }
  - { offsetInCU: 0x4646, offset: 0x13CA1, size: 0x8, addend: 0x0, symName: __ZNSt3__112__to_addressB8ue170006INS_16reverse_iteratorIPP5pieceEEvEEu7__decayIDTclsr19__to_address_helperIT_EE6__callclsr3stdE7declvalIRKS6_EEEEES8_, symObjAddr: 0x1818, symBinAddr: 0x100005E7C, symSize: 0x24 }
  - { offsetInCU: 0x467D, offset: 0x13CD8, size: 0x8, addend: 0x0, symName: __ZNSt3__14moveB8ue170006INS_16reverse_iteratorIPP5pieceEES5_EET0_T_S7_S6_, symObjAddr: 0x1884, symBinAddr: 0x100005EE8, symSize: 0x78 }
  - { offsetInCU: 0x4701, offset: 0x13D5C, size: 0x8, addend: 0x0, symName: __ZNSt3__16__moveB8ue170006INS_17_ClassicAlgPolicyENS_16reverse_iteratorIPP5pieceEES6_S6_EENS_4pairIT0_T2_EES8_T1_S9_, symObjAddr: 0x196C, symBinAddr: 0x100005FD0, symSize: 0x64 }
  - { offsetInCU: 0x476D, offset: 0x13DC8, size: 0x8, addend: 0x0, symName: __ZNSt3__123__dispatch_copy_or_moveB8ue170006INS_17_ClassicAlgPolicyENS_11__move_loopIS1_EENS_14__move_trivialENS_16reverse_iteratorIPP5pieceEES9_S9_EENS_4pairIT2_T4_EESB_T3_SC_, symObjAddr: 0x19D0, symBinAddr: 0x100006034, symSize: 0x64 }
  - { offsetInCU: 0x47EB, offset: 0x13E46, size: 0x8, addend: 0x0, symName: __ZNSt3__121__unwrap_and_dispatchB8ue170006INS_10__overloadINS_11__move_loopINS_17_ClassicAlgPolicyEEENS_14__move_trivialEEENS_16reverse_iteratorIPP5pieceEESB_SB_Li0EEENS_4pairIT0_T2_EESD_T1_SE_, symObjAddr: 0x1A34, symBinAddr: 0x100006098, symSize: 0x12C }
  - { offsetInCU: 0x487C, offset: 0x13ED7, size: 0x8, addend: 0x0, symName: __ZNSt3__114__unwrap_rangeB8ue170006INS_16reverse_iteratorIPP5pieceEES5_EENS_4pairIT0_S7_EET_S9_, symObjAddr: 0x1B60, symBinAddr: 0x1000061C4, symSize: 0x84 }
  - { offsetInCU: 0x49D0, offset: 0x1402B, size: 0x8, addend: 0x0, symName: __ZNSt3__113__unwrap_iterB8ue170006INS_16reverse_iteratorIPP5pieceEENS_18__unwrap_iter_implIS5_Lb0EEELi0EEEDTclsrT0_8__unwrapclsr3stdE7declvalIT_EEEES9_, symObjAddr: 0x1C84, symBinAddr: 0x1000062E8, symSize: 0x44 }
  - { offsetInCU: 0x4A15, offset: 0x14070, size: 0x8, addend: 0x0, symName: __ZNSt3__19make_pairB8ue170006INS_16reverse_iteratorIPP5pieceEES5_EENS_4pairINS_18__unwrap_ref_decayIT_E4typeENS7_IT0_E4typeEEEOS8_OSB_, symObjAddr: 0x1CC8, symBinAddr: 0x10000632C, symSize: 0x38 }
  - { offsetInCU: 0x4A64, offset: 0x140BF, size: 0x8, addend: 0x0, symName: __ZNSt3__114__rewrap_rangeB8ue170006INS_16reverse_iteratorIPP5pieceEES5_EET_S6_T0_, symObjAddr: 0x1D00, symBinAddr: 0x100006364, symSize: 0x5C }
  - { offsetInCU: 0x4AB0, offset: 0x1410B, size: 0x8, addend: 0x0, symName: __ZNSt3__113__rewrap_iterB8ue170006INS_16reverse_iteratorIPP5pieceEES5_NS_18__unwrap_iter_implIS5_Lb0EEEEET_S8_T0_, symObjAddr: 0x1D5C, symBinAddr: 0x1000063C0, symSize: 0x88 }
  - { offsetInCU: 0x4BB9, offset: 0x14214, size: 0x8, addend: 0x0, symName: __ZNSt3__119__libcpp_deallocateB8ue170006EPvmm, symObjAddr: 0x2184, symBinAddr: 0x1000067E8, symSize: 0x30 }
  - { offsetInCU: 0x4C02, offset: 0x1425D, size: 0x8, addend: 0x0, symName: __ZNSt3__127__do_deallocate_handle_sizeB8ue170006IJEEEvPvmDpT_, symObjAddr: 0x21B4, symBinAddr: 0x100006818, symSize: 0x28 }
  - { offsetInCU: 0x4C42, offset: 0x1429D, size: 0x8, addend: 0x0, symName: __ZNSt3__124__libcpp_operator_deleteB8ue170006IJPvEEEvDpT_, symObjAddr: 0x21DC, symBinAddr: 0x100006840, symSize: 0x24 }
  - { offsetInCU: 0x5226, offset: 0x14881, size: 0x8, addend: 0x0, symName: __ZNSt3__16vectorIP5pieceNS_9allocatorIS2_EEE26__swap_out_circular_bufferERNS_14__split_bufferIS2_RS4_EE, symObjAddr: 0xBB8, symBinAddr: 0x1000052A8, symSize: 0x110 }
  - { offsetInCU: 0x710A, offset: 0x16765, size: 0x8, addend: 0x0, symName: __ZN4gameC2Ev, symObjAddr: 0x0, symBinAddr: 0x1000047F0, symSize: 0xFC }
  - { offsetInCU: 0x7135, offset: 0x16790, size: 0x8, addend: 0x0, symName: __ZN4gameC1Ev, symObjAddr: 0xFC, symBinAddr: 0x1000048EC, symSize: 0x2C }
  - { offsetInCU: 0x7160, offset: 0x167BB, size: 0x8, addend: 0x0, symName: __ZN4game9validmoveEiiiiR5boardR6player, symObjAddr: 0x128, symBinAddr: 0x100004918, symSize: 0x10C }
  - { offsetInCU: 0x71E9, offset: 0x16844, size: 0x8, addend: 0x0, symName: __ZN4game9movepieceEiiiiR5boardR6player, symObjAddr: 0x234, symBinAddr: 0x100004A24, symSize: 0x1B4 }
  - { offsetInCU: 0x7272, offset: 0x168CD, size: 0x8, addend: 0x0, symName: __ZNSt3__16vectorIP5pieceNS_9allocatorIS2_EEE9push_backB8ue170006EOS2_, symObjAddr: 0x41C, symBinAddr: 0x100004BD8, symSize: 0x6C }
  - { offsetInCU: 0x72A7, offset: 0x16902, size: 0x8, addend: 0x0, symName: __ZN4game8checkwinEv, symObjAddr: 0x488, symBinAddr: 0x100004C44, symSize: 0x15C }
  - { offsetInCU: 0x7322, offset: 0x1697D, size: 0x8, addend: 0x0, symName: __ZNKSt3__16vectorIP5pieceNS_9allocatorIS2_EEE4sizeB8ue170006Ev, symObjAddr: 0x5E4, symBinAddr: 0x100004DA0, symSize: 0x28 }
  - { offsetInCU: 0x7346, offset: 0x169A1, size: 0x8, addend: 0x0, symName: __ZNSt3__16vectorIP5pieceNS_9allocatorIS2_EEEixB8ue170006Em, symObjAddr: 0x6CC, symBinAddr: 0x100004DC8, symSize: 0x24 }
  - { offsetInCU: 0x737B, offset: 0x169D6, size: 0x8, addend: 0x0, symName: __ZN4game10nextplayerEv, symObjAddr: 0x6F0, symBinAddr: 0x100004DEC, symSize: 0x50 }
  - { offsetInCU: 0x73A3, offset: 0x169FE, size: 0x8, addend: 0x0, symName: __ZNSt3__16vectorIP5pieceNS_9allocatorIS2_EEE9__end_capB8ue170006Ev, symObjAddr: 0x740, symBinAddr: 0x100004E3C, symSize: 0x28 }
  - { offsetInCU: 0x73CC, offset: 0x16A27, size: 0x8, addend: 0x0, symName: __ZNSt3__16vectorIP5pieceNS_9allocatorIS2_EEE22__construct_one_at_endB8ue170006IJS2_EEEvDpOT_, symObjAddr: 0x768, symBinAddr: 0x100004E64, symSize: 0x98 }
  - { offsetInCU: 0x741A, offset: 0x16A75, size: 0x8, addend: 0x0, symName: __ZNSt3__16vectorIP5pieceNS_9allocatorIS2_EEE21__push_back_slow_pathIS2_EEvOT_, symObjAddr: 0x800, symBinAddr: 0x100004EFC, symSize: 0xE0 }
  - { offsetInCU: 0x7477, offset: 0x16AD2, size: 0x8, addend: 0x0, symName: __ZNSt3__117__compressed_pairIPP5pieceNS_9allocatorIS2_EEE5firstB8ue170006Ev, symObjAddr: 0x8E0, symBinAddr: 0x100004FDC, symSize: 0x24 }
  - { offsetInCU: 0x749A, offset: 0x16AF5, size: 0x8, addend: 0x0, symName: __ZNSt3__122__compressed_pair_elemIPP5pieceLi0ELb0EE5__getB8ue170006Ev, symObjAddr: 0x904, symBinAddr: 0x100005000, symSize: 0x14 }
  - { offsetInCU: 0x74D8, offset: 0x16B33, size: 0x8, addend: 0x0, symName: __ZNSt3__16vectorIP5pieceNS_9allocatorIS2_EEE21_ConstructTransactionC1B8ue170006ERS5_m, symObjAddr: 0x918, symBinAddr: 0x100005014, symSize: 0x3C }
  - { offsetInCU: 0x751E, offset: 0x16B79, size: 0x8, addend: 0x0, symName: __ZNSt3__116allocator_traitsINS_9allocatorIP5pieceEEE9constructB8ue170006IS3_JS3_EvEEvRS4_PT_DpOT0_, symObjAddr: 0x954, symBinAddr: 0x100005050, symSize: 0x34 }
  - { offsetInCU: 0x7577, offset: 0x16BD2, size: 0x8, addend: 0x0, symName: __ZNSt3__16vectorIP5pieceNS_9allocatorIS2_EEE7__allocB8ue170006Ev, symObjAddr: 0x988, symBinAddr: 0x100005084, symSize: 0x28 }
  - { offsetInCU: 0x759B, offset: 0x16BF6, size: 0x8, addend: 0x0, symName: __ZNSt3__16vectorIP5pieceNS_9allocatorIS2_EEE21_ConstructTransactionD1B8ue170006Ev, symObjAddr: 0x9C4, symBinAddr: 0x1000050C0, symSize: 0x2C }
  - { offsetInCU: 0x75C3, offset: 0x16C1E, size: 0x8, addend: 0x0, symName: __ZNSt3__16vectorIP5pieceNS_9allocatorIS2_EEE21_ConstructTransactionC2B8ue170006ERS5_m, symObjAddr: 0x9FC, symBinAddr: 0x1000050EC, symSize: 0x44 }
  - { offsetInCU: 0x7608, offset: 0x16C63, size: 0x8, addend: 0x0, symName: __ZNSt3__19allocatorIP5pieceE9constructB8ue170006IS2_JS2_EEEvPT_DpOT0_, symObjAddr: 0xA40, symBinAddr: 0x100005130, symSize: 0x28 }
  - { offsetInCU: 0x765F, offset: 0x16CBA, size: 0x8, addend: 0x0, symName: __ZNSt3__117__compressed_pairIPP5pieceNS_9allocatorIS2_EEE6secondB8ue170006Ev, symObjAddr: 0xA68, symBinAddr: 0x100005158, symSize: 0x24 }
  - { offsetInCU: 0x7682, offset: 0x16CDD, size: 0x8, addend: 0x0, symName: __ZNSt3__122__compressed_pair_elemINS_9allocatorIP5pieceEELi1ELb1EE5__getB8ue170006Ev, symObjAddr: 0xA8C, symBinAddr: 0x10000517C, symSize: 0x14 }
  - { offsetInCU: 0x76A7, offset: 0x16D02, size: 0x8, addend: 0x0, symName: __ZNSt3__16vectorIP5pieceNS_9allocatorIS2_EEE21_ConstructTransactionD2B8ue170006Ev, symObjAddr: 0xAA0, symBinAddr: 0x100005190, symSize: 0x20 }
  - { offsetInCU: 0x76CE, offset: 0x16D29, size: 0x8, addend: 0x0, symName: __ZNKSt3__16vectorIP5pieceNS_9allocatorIS2_EEE11__recommendB8ue170006Em, symObjAddr: 0xAC0, symBinAddr: 0x1000051B0, symSize: 0xB4 }
  - { offsetInCU: 0x7722, offset: 0x16D7D, size: 0x8, addend: 0x0, symName: __ZNSt3__114__split_bufferIP5pieceRNS_9allocatorIS2_EEEC1EmmS5_, symObjAddr: 0xB74, symBinAddr: 0x100005264, symSize: 0x44 }
  - { offsetInCU: 0x7777, offset: 0x16DD2, size: 0x8, addend: 0x0, symName: __ZNSt3__114__split_bufferIP5pieceRNS_9allocatorIS2_EEED1Ev, symObjAddr: 0xCC8, symBinAddr: 0x1000053B8, symSize: 0x2C }
  - { offsetInCU: 0x77A1, offset: 0x16DFC, size: 0x8, addend: 0x0, symName: __ZNKSt3__16vectorIP5pieceNS_9allocatorIS2_EEE8max_sizeEv, symObjAddr: 0xCF4, symBinAddr: 0x1000053E4, symSize: 0x74 }
  - { offsetInCU: 0x77C8, offset: 0x16E23, size: 0x8, addend: 0x0, symName: __ZNKSt3__16vectorIP5pieceNS_9allocatorIS2_EEE20__throw_length_errorB8ue170006Ev, symObjAddr: 0xD68, symBinAddr: 0x100005458, symSize: 0x1C }
  - { offsetInCU: 0x77EC, offset: 0x16E47, size: 0x8, addend: 0x0, symName: __ZNKSt3__16vectorIP5pieceNS_9allocatorIS2_EEE8capacityB8ue170006Ev, symObjAddr: 0xD84, symBinAddr: 0x100005474, symSize: 0x40 }
  - { offsetInCU: 0x781A, offset: 0x16E75, size: 0x8, addend: 0x0, symName: __ZNSt3__116allocator_traitsINS_9allocatorIP5pieceEEE8max_sizeB8ue170006IS4_vEEmRKS4_, symObjAddr: 0xE1C, symBinAddr: 0x10000550C, symSize: 0x24 }
  - { offsetInCU: 0x7848, offset: 0x16EA3, size: 0x8, addend: 0x0, symName: __ZNKSt3__16vectorIP5pieceNS_9allocatorIS2_EEE7__allocB8ue170006Ev, symObjAddr: 0xE40, symBinAddr: 0x100005530, symSize: 0x28 }
  - { offsetInCU: 0x786C, offset: 0x16EC7, size: 0x8, addend: 0x0, symName: __ZNSt3__114numeric_limitsIlE3maxB8ue170006Ev, symObjAddr: 0xE68, symBinAddr: 0x100005558, symSize: 0x14 }
  - { offsetInCU: 0x7893, offset: 0x16EEE, size: 0x8, addend: 0x0, symName: __ZNKSt3__16__lessIvvEclB8ue170006ImmEEbRKT_RKT0_, symObjAddr: 0xED0, symBinAddr: 0x1000055C0, symSize: 0x34 }
  - { offsetInCU: 0x78E5, offset: 0x16F40, size: 0x8, addend: 0x0, symName: __ZNKSt3__19allocatorIP5pieceE8max_sizeB8ue170006Ev, symObjAddr: 0xF04, symBinAddr: 0x1000055F4, symSize: 0x14 }
  - { offsetInCU: 0x790A, offset: 0x16F65, size: 0x8, addend: 0x0, symName: __ZNKSt3__117__compressed_pairIPP5pieceNS_9allocatorIS2_EEE6secondB8ue170006Ev, symObjAddr: 0xF18, symBinAddr: 0x100005608, symSize: 0x24 }
  - { offsetInCU: 0x792D, offset: 0x16F88, size: 0x8, addend: 0x0, symName: __ZNKSt3__122__compressed_pair_elemINS_9allocatorIP5pieceEELi1ELb1EE5__getB8ue170006Ev, symObjAddr: 0xF3C, symBinAddr: 0x10000562C, symSize: 0x14 }
  - { offsetInCU: 0x7952, offset: 0x16FAD, size: 0x8, addend: 0x0, symName: __ZNSt3__123__libcpp_numeric_limitsIlLb1EE3maxB8ue170006Ev, symObjAddr: 0xF50, symBinAddr: 0x100005640, symSize: 0x8 }
  - { offsetInCU: 0x7965, offset: 0x16FC0, size: 0x8, addend: 0x0, symName: __ZNSt12length_errorC1B8ue170006EPKc, symObjAddr: 0xFBC, symBinAddr: 0x1000056AC, symSize: 0x34 }
  - { offsetInCU: 0x799B, offset: 0x16FF6, size: 0x8, addend: 0x0, symName: __ZNSt12length_errorC2B8ue170006EPKc, symObjAddr: 0xFF0, symBinAddr: 0x1000056E0, symSize: 0x4C }
  - { offsetInCU: 0x79D1, offset: 0x1702C, size: 0x8, addend: 0x0, symName: __ZNKSt3__16vectorIP5pieceNS_9allocatorIS2_EEE9__end_capB8ue170006Ev, symObjAddr: 0x103C, symBinAddr: 0x10000572C, symSize: 0x28 }
  - { offsetInCU: 0x79F5, offset: 0x17050, size: 0x8, addend: 0x0, symName: __ZNKSt3__117__compressed_pairIPP5pieceNS_9allocatorIS2_EEE5firstB8ue170006Ev, symObjAddr: 0x1064, symBinAddr: 0x100005754, symSize: 0x24 }
  - { offsetInCU: 0x7A18, offset: 0x17073, size: 0x8, addend: 0x0, symName: __ZNKSt3__122__compressed_pair_elemIPP5pieceLi0ELb0EE5__getB8ue170006Ev, symObjAddr: 0x1088, symBinAddr: 0x100005778, symSize: 0x14 }
  - { offsetInCU: 0x7A3D, offset: 0x17098, size: 0x8, addend: 0x0, symName: __ZNSt3__114__split_bufferIP5pieceRNS_9allocatorIS2_EEEC2EmmS5_, symObjAddr: 0x10F0, symBinAddr: 0x1000057E0, symSize: 0xD4 }
  - { offsetInCU: 0x7AB4, offset: 0x1710F, size: 0x8, addend: 0x0, symName: __ZNSt3__117__compressed_pairIPP5pieceRNS_9allocatorIS2_EEEC1B8ue170006IDnS6_EEOT_OT0_, symObjAddr: 0x11C4, symBinAddr: 0x1000058B4, symSize: 0x3C }
  - { offsetInCU: 0x7B0A, offset: 0x17165, size: 0x8, addend: 0x0, symName: __ZNSt3__114__split_bufferIP5pieceRNS_9allocatorIS2_EEE7__allocB8ue170006Ev, symObjAddr: 0x1240, symBinAddr: 0x100005930, symSize: 0x28 }
  - { offsetInCU: 0x7B2E, offset: 0x17189, size: 0x8, addend: 0x0, symName: __ZNSt3__114__split_bufferIP5pieceRNS_9allocatorIS2_EEE9__end_capB8ue170006Ev, symObjAddr: 0x1268, symBinAddr: 0x100005958, symSize: 0x28 }
  - { offsetInCU: 0x7B52, offset: 0x171AD, size: 0x8, addend: 0x0, symName: __ZNSt3__117__compressed_pairIPP5pieceRNS_9allocatorIS2_EEEC2B8ue170006IDnS6_EEOT_OT0_, symObjAddr: 0x1290, symBinAddr: 0x100005980, symSize: 0x48 }
  - { offsetInCU: 0x7BA8, offset: 0x17203, size: 0x8, addend: 0x0, symName: __ZNSt3__122__compressed_pair_elemIPP5pieceLi0ELb0EEC2B8ue170006IDnvEEOT_, symObjAddr: 0x12D8, symBinAddr: 0x1000059C8, symSize: 0x1C }
  - { offsetInCU: 0x7BE9, offset: 0x17244, size: 0x8, addend: 0x0, symName: __ZNSt3__122__compressed_pair_elemIRNS_9allocatorIP5pieceEELi1ELb0EEC2B8ue170006IS5_vEEOT_, symObjAddr: 0x12F4, symBinAddr: 0x1000059E4, symSize: 0x20 }
  - { offsetInCU: 0x7C2A, offset: 0x17285, size: 0x8, addend: 0x0, symName: __ZNSt3__19allocatorIP5pieceE8allocateB8ue170006Em, symObjAddr: 0x1314, symBinAddr: 0x100005A04, symSize: 0x84 }
  - { offsetInCU: 0x7C5C, offset: 0x172B7, size: 0x8, addend: 0x0, symName: __ZNSt3__117__compressed_pairIPP5pieceRNS_9allocatorIS2_EEE6secondB8ue170006Ev, symObjAddr: 0x1424, symBinAddr: 0x100005A88, symSize: 0x28 }
  - { offsetInCU: 0x7C7F, offset: 0x172DA, size: 0x8, addend: 0x0, symName: __ZNSt3__122__compressed_pair_elemIRNS_9allocatorIP5pieceEELi1ELb0EE5__getB8ue170006Ev, symObjAddr: 0x144C, symBinAddr: 0x100005AB0, symSize: 0x18 }
  - { offsetInCU: 0x7CA4, offset: 0x172FF, size: 0x8, addend: 0x0, symName: __ZNSt3__117__compressed_pairIPP5pieceRNS_9allocatorIS2_EEE5firstB8ue170006Ev, symObjAddr: 0x1464, symBinAddr: 0x100005AC8, symSize: 0x24 }
  - { offsetInCU: 0x7CC8, offset: 0x17323, size: 0x8, addend: 0x0, symName: __ZNKSt3__16vectorIP5pieceNS_9allocatorIS2_EEE17__annotate_deleteB8ue170006Ev, symObjAddr: 0x1488, symBinAddr: 0x100005AEC, symSize: 0xB8 }
  - { offsetInCU: 0x7CEC, offset: 0x17347, size: 0x8, addend: 0x0, symName: __ZNSt3__116reverse_iteratorIPP5pieceEC1B8ue170006ES3_, symObjAddr: 0x1628, symBinAddr: 0x100005C8C, symSize: 0x34 }
  - { offsetInCU: 0x7D21, offset: 0x1737C, size: 0x8, addend: 0x0, symName: __ZNKSt3__116reverse_iteratorIPP5pieceE4baseB8ue170006Ev, symObjAddr: 0x165C, symBinAddr: 0x100005CC0, symSize: 0x18 }
  - { offsetInCU: 0x7D46, offset: 0x173A1, size: 0x8, addend: 0x0, symName: __ZNKSt3__16vectorIP5pieceNS_9allocatorIS2_EEE14__annotate_newB8ue170006Em, symObjAddr: 0x16B0, symBinAddr: 0x100005D14, symSize: 0xAC }
  - { offsetInCU: 0x7D78, offset: 0x173D3, size: 0x8, addend: 0x0, symName: __ZNKSt3__16vectorIP5pieceNS_9allocatorIS2_EEE31__annotate_contiguous_containerB8ue170006EPKvS7_S7_S7_, symObjAddr: 0x175C, symBinAddr: 0x100005DC0, symSize: 0x20 }
  - { offsetInCU: 0x7DCD, offset: 0x17428, size: 0x8, addend: 0x0, symName: __ZNKSt3__16vectorIP5pieceNS_9allocatorIS2_EEE4dataB8ue170006Ev, symObjAddr: 0x177C, symBinAddr: 0x100005DE0, symSize: 0x28 }
  - { offsetInCU: 0x7DF0, offset: 0x1744B, size: 0x8, addend: 0x0, symName: __ZNKSt3__116reverse_iteratorIPP5pieceEdeB8ue170006Ev, symObjAddr: 0x183C, symBinAddr: 0x100005EA0, symSize: 0x28 }
  - { offsetInCU: 0x7E22, offset: 0x1747D, size: 0x8, addend: 0x0, symName: __ZNSt3__116reverse_iteratorIPP5pieceEppB8ue170006Ev, symObjAddr: 0x1864, symBinAddr: 0x100005EC8, symSize: 0x20 }
  - { offsetInCU: 0x7E4C, offset: 0x174A7, size: 0x8, addend: 0x0, symName: __ZNSt3__119__to_address_helperINS_16reverse_iteratorIPP5pieceEEvE6__callB8ue170006ERKS5_, symObjAddr: 0x18FC, symBinAddr: 0x100005F60, symSize: 0x4C }
  - { offsetInCU: 0x7E6E, offset: 0x174C9, size: 0x8, addend: 0x0, symName: __ZNKSt3__116reverse_iteratorIPP5pieceEptB8ue170006Ev, symObjAddr: 0x1948, symBinAddr: 0x100005FAC, symSize: 0x24 }
  - { offsetInCU: 0x7EB5, offset: 0x17510, size: 0x8, addend: 0x0, symName: __ZNKSt3__111__move_loopINS_17_ClassicAlgPolicyEEclB8ue170006INS_16reverse_iteratorIPP5pieceEES8_S8_EENS_4pairIT_T1_EESA_T0_SB_, symObjAddr: 0x1BE4, symBinAddr: 0x100006248, symSize: 0xA0 }
  - { offsetInCU: 0x7F1E, offset: 0x17579, size: 0x8, addend: 0x0, symName: __ZNSt3__18_IterOpsINS_17_ClassicAlgPolicyEE11__iter_moveB8ue170006IRNS_16reverse_iteratorIPP5pieceEEEENS_9enable_ifIXsr12is_referenceIDTdeclsr3stdE7declvalIRT_EEEEE5valueEDTclsr3stdE4movedeclsr3stdE7declvalISC_EEEEE4typeEOSB_, symObjAddr: 0x1DE4, symBinAddr: 0x100006448, symSize: 0x28 }
  - { offsetInCU: 0x7F49, offset: 0x175A4, size: 0x8, addend: 0x0, symName: __ZNSt3__18_IterOpsINS_17_ClassicAlgPolicyEE25__validate_iter_referenceB8ue170006IRNS_16reverse_iteratorIPP5pieceEEEEvv, symObjAddr: 0x1E0C, symBinAddr: 0x100006470, symSize: 0x4 }
  - { offsetInCU: 0x7F66, offset: 0x175C1, size: 0x8, addend: 0x0, symName: __ZNSt3__118__unwrap_iter_implINS_16reverse_iteratorIPP5pieceEELb0EE8__unwrapB8ue170006ES5_, symObjAddr: 0x1E10, symBinAddr: 0x100006474, symSize: 0x24 }
  - { offsetInCU: 0x7F88, offset: 0x175E3, size: 0x8, addend: 0x0, symName: __ZNSt3__14pairINS_16reverse_iteratorIPP5pieceEES5_EC1B8ue170006ERKS5_S8_, symObjAddr: 0x1E34, symBinAddr: 0x100006498, symSize: 0x3C }
  - { offsetInCU: 0x7FCC, offset: 0x17627, size: 0x8, addend: 0x0, symName: __ZNSt3__14pairINS_16reverse_iteratorIPP5pieceEES5_EC2B8ue170006ERKS5_S8_, symObjAddr: 0x1E70, symBinAddr: 0x1000064D4, symSize: 0x34 }
  - { offsetInCU: 0x8010, offset: 0x1766B, size: 0x8, addend: 0x0, symName: __ZNSt3__118__unwrap_iter_implINS_16reverse_iteratorIPP5pieceEELb0EE8__rewrapB8ue170006ES5_S5_, symObjAddr: 0x1EA4, symBinAddr: 0x100006508, symSize: 0x2C }
  - { offsetInCU: 0x803C, offset: 0x17697, size: 0x8, addend: 0x0, symName: __ZNSt3__116reverse_iteratorIPP5pieceEC2B8ue170006ES3_, symObjAddr: 0x1ED0, symBinAddr: 0x100006534, symSize: 0x28 }
  - { offsetInCU: 0x8072, offset: 0x176CD, size: 0x8, addend: 0x0, symName: __ZNSt3__114__split_bufferIP5pieceRNS_9allocatorIS2_EEED2Ev, symObjAddr: 0x1EF8, symBinAddr: 0x10000655C, symSize: 0x80 }
  - { offsetInCU: 0x809D, offset: 0x176F8, size: 0x8, addend: 0x0, symName: __ZNSt3__114__split_bufferIP5pieceRNS_9allocatorIS2_EEE5clearB8ue170006Ev, symObjAddr: 0x1F78, symBinAddr: 0x1000065DC, symSize: 0x28 }
  - { offsetInCU: 0x80C1, offset: 0x1771C, size: 0x8, addend: 0x0, symName: __ZNSt3__116allocator_traitsINS_9allocatorIP5pieceEEE10deallocateB8ue170006ERS4_PS3_m, symObjAddr: 0x1FA0, symBinAddr: 0x100006604, symSize: 0x34 }
  - { offsetInCU: 0x8102, offset: 0x1775D, size: 0x8, addend: 0x0, symName: __ZNKSt3__114__split_bufferIP5pieceRNS_9allocatorIS2_EEE8capacityB8ue170006Ev, symObjAddr: 0x1FD4, symBinAddr: 0x100006638, symSize: 0x40 }
  - { offsetInCU: 0x8126, offset: 0x17781, size: 0x8, addend: 0x0, symName: __ZNSt3__114__split_bufferIP5pieceRNS_9allocatorIS2_EEE17__destruct_at_endB8ue170006EPS2_, symObjAddr: 0x2014, symBinAddr: 0x100006678, symSize: 0x2C }
  - { offsetInCU: 0x8157, offset: 0x177B2, size: 0x8, addend: 0x0, symName: __ZNSt3__114__split_bufferIP5pieceRNS_9allocatorIS2_EEE17__destruct_at_endB8ue170006EPS2_NS_17integral_constantIbLb0EEE, symObjAddr: 0x2040, symBinAddr: 0x1000066A4, symSize: 0x94 }
  - { offsetInCU: 0x8196, offset: 0x177F1, size: 0x8, addend: 0x0, symName: __ZNSt3__116allocator_traitsINS_9allocatorIP5pieceEEE7destroyB8ue170006IS3_vEEvRS4_PT_, symObjAddr: 0x20D4, symBinAddr: 0x100006738, symSize: 0x2C }
  - { offsetInCU: 0x81D2, offset: 0x1782D, size: 0x8, addend: 0x0, symName: __ZNSt3__19allocatorIP5pieceE7destroyB8ue170006EPS2_, symObjAddr: 0x2100, symBinAddr: 0x100006764, symSize: 0x14 }
  - { offsetInCU: 0x8205, offset: 0x17860, size: 0x8, addend: 0x0, symName: __ZNSt3__19allocatorIP5pieceE10deallocateB8ue170006EPS2_m, symObjAddr: 0x2114, symBinAddr: 0x100006778, symSize: 0x70 }
  - { offsetInCU: 0x8245, offset: 0x178A0, size: 0x8, addend: 0x0, symName: __ZNKSt3__114__split_bufferIP5pieceRNS_9allocatorIS2_EEE9__end_capB8ue170006Ev, symObjAddr: 0x2200, symBinAddr: 0x100006864, symSize: 0x28 }
  - { offsetInCU: 0x8269, offset: 0x178C4, size: 0x8, addend: 0x0, symName: __ZNKSt3__117__compressed_pairIPP5pieceRNS_9allocatorIS2_EEE5firstB8ue170006Ev, symObjAddr: 0x2228, symBinAddr: 0x10000688C, symSize: 0x24 }
  - { offsetInCU: 0x4588, offset: 0x1BED3, size: 0x8, addend: 0x0, symName: __ZNSt3__1lsB8ue170006IcNS_11char_traitsIcEENS_9allocatorIcEEEERNS_13basic_ostreamIT_T0_EES9_RKNS_12basic_stringIS6_S7_T1_EE, symObjAddr: 0x9E0, symBinAddr: 0x1000071C4, symSize: 0x4C }
  - { offsetInCU: 0x6748, offset: 0x1E093, size: 0x8, addend: 0x0, symName: __ZN5boardC2EP6playerS1_, symObjAddr: 0x0, symBinAddr: 0x1000068B0, symSize: 0x688 }
  - { offsetInCU: 0x67EF, offset: 0x1E13A, size: 0x8, addend: 0x0, symName: __ZN5boardC1EP6playerS1_, symObjAddr: 0x688, symBinAddr: 0x100006F38, symSize: 0x3C }
  - { offsetInCU: 0x6836, offset: 0x1E181, size: 0x8, addend: 0x0, symName: __ZN5boardD2Ev, symObjAddr: 0x6C4, symBinAddr: 0x100006F74, symSize: 0x124 }
  - { offsetInCU: 0x6899, offset: 0x1E1E4, size: 0x8, addend: 0x0, symName: __ZN5boardD1Ev, symObjAddr: 0x7E8, symBinAddr: 0x100007098, symSize: 0x2C }
  - { offsetInCU: 0x68C4, offset: 0x1E20F, size: 0x8, addend: 0x0, symName: __ZN5board5printEv, symObjAddr: 0x814, symBinAddr: 0x1000070C4, symSize: 0xCC }
  - { offsetInCU: 0x6923, offset: 0x1E26E, size: 0x8, addend: 0x0, symName: __ZlsRNSt3__113basic_ostreamIcNS_11char_traitsIcEEEERK5piece, symObjAddr: 0x928, symBinAddr: 0x100007190, symSize: 0x34 }
  - { offsetInCU: 0x695D, offset: 0x1E2A8, size: 0x8, addend: 0x0, symName: __ZN5board8getpieceEii, symObjAddr: 0xA2C, symBinAddr: 0x100007210, symSize: 0x30 }
  - { offsetInCU: 0x26, offset: 0x1E343, size: 0x8, addend: 0x0, symName: __ZN6playerC2Ev, symObjAddr: 0x0, symBinAddr: 0x100007240, symSize: 0x30 }
  - { offsetInCU: 0x518D, offset: 0x234AA, size: 0x8, addend: 0x0, symName: __ZN6playerC2Ev, symObjAddr: 0x0, symBinAddr: 0x100007240, symSize: 0x30 }
  - { offsetInCU: 0x51B8, offset: 0x234D5, size: 0x8, addend: 0x0, symName: __ZNSt3__16vectorIP5pieceNS_9allocatorIS2_EEEC1B8ue170006Ev, symObjAddr: 0x30, symBinAddr: 0x100007270, symSize: 0x2C }
  - { offsetInCU: 0x51E0, offset: 0x234FD, size: 0x8, addend: 0x0, symName: __ZN6playerC1Ev, symObjAddr: 0x5C, symBinAddr: 0x10000729C, symSize: 0x2C }
  - { offsetInCU: 0x520B, offset: 0x23528, size: 0x8, addend: 0x0, symName: __ZN6playerC2Ei, symObjAddr: 0x88, symBinAddr: 0x1000072C8, symSize: 0x44 }
  - { offsetInCU: 0x5244, offset: 0x23561, size: 0x8, addend: 0x0, symName: __ZN6playerC1Ei, symObjAddr: 0xCC, symBinAddr: 0x10000730C, symSize: 0x34 }
  - { offsetInCU: 0x527D, offset: 0x2359A, size: 0x8, addend: 0x0, symName: __ZNSt3__16vectorIP5pieceNS_9allocatorIS2_EEEC2B8ue170006Ev, symObjAddr: 0x100, symBinAddr: 0x100007340, symSize: 0x44 }
  - { offsetInCU: 0x52AF, offset: 0x235CC, size: 0x8, addend: 0x0, symName: __ZNSt3__117__compressed_pairIPP5pieceNS_9allocatorIS2_EEEC1B8ue170006IDnNS_18__default_init_tagEEEOT_OT0_, symObjAddr: 0x144, symBinAddr: 0x100007384, symSize: 0x3C }
  - { offsetInCU: 0x5305, offset: 0x23622, size: 0x8, addend: 0x0, symName: __ZNSt3__117__compressed_pairIPP5pieceNS_9allocatorIS2_EEEC2B8ue170006IDnNS_18__default_init_tagEEEOT_OT0_, symObjAddr: 0x180, symBinAddr: 0x1000073C0, symSize: 0x40 }
  - { offsetInCU: 0x535B, offset: 0x23678, size: 0x8, addend: 0x0, symName: __ZNSt3__122__compressed_pair_elemINS_9allocatorIP5pieceEELi1ELb1EEC2B8ue170006ENS_18__default_init_tagE, symObjAddr: 0x1DC, symBinAddr: 0x100007400, symSize: 0x2C }
  - { offsetInCU: 0x538D, offset: 0x236AA, size: 0x8, addend: 0x0, symName: __ZNSt3__19allocatorIP5pieceEC2B8ue170006Ev, symObjAddr: 0x208, symBinAddr: 0x10000742C, symSize: 0x2C }
  - { offsetInCU: 0x53B5, offset: 0x236D2, size: 0x8, addend: 0x0, symName: __ZNSt3__116__non_trivial_ifILb1ENS_9allocatorIP5pieceEEEC2B8ue170006Ev, symObjAddr: 0x234, symBinAddr: 0x100007458, symSize: 0x14 }
...
